target datalayout = "e-m:e-p270:32:32-p271:32:32-p272:64:64-i64:64-i128:128-f80:128-n8:16:32:64-S128"
target triple = "x86_64-pc-linux-gnu"

@.str.2 = private unnamed_addr constant [44 x i8] c"#EXT-X-MEDIA:TYPE=AUDIO,GROUP-ID=\22group_%s\22\00", align 1
@.str.3 = private unnamed_addr constant [29 x i8] c",NAME=\22audio_%d\22,DEFAULT=%s,\00", align 1
@.str.4 = private unnamed_addr constant [4 x i8] c"YES\00", align 1
@.str.5 = private unnamed_addr constant [3 x i8] c"NO\00", align 1
@.str.6 = private unnamed_addr constant [15 x i8] c"LANGUAGE=\22%s\22,\00", align 1
@.str.7 = private unnamed_addr constant [15 x i8] c"CHANNELS=\22%d\22,\00", align 1
@.str.8 = private unnamed_addr constant [10 x i8] c"URI=\22%s\22\0A\00", align 1

; Function Attrs: nounwind uwtable
define void @ff_hls_write_audio_rendition(ptr noundef %0, ptr noundef %1, ptr noundef %2, ptr noundef %3, i32 noundef %4, i32 noundef %5, i32 noundef %6) #0 {
  %8 = alloca ptr, align 8
  %9 = alloca ptr, align 8
  %10 = alloca ptr, align 8
  %11 = alloca ptr, align 8
  %12 = alloca i32, align 4
  %13 = alloca i32, align 4
  %14 = alloca i32, align 4
  store ptr %0, ptr %8, align 8, !tbaa !4
  store ptr %1, ptr %9, align 8, !tbaa !11
  store ptr %2, ptr %10, align 8, !tbaa !11
  store ptr %3, ptr %11, align 8, !tbaa !11
  store i32 %4, ptr %12, align 4, !tbaa !9
  store i32 %5, ptr %13, align 4, !tbaa !9
  store i32 %6, ptr %14, align 4, !tbaa !9
  %15 = load ptr, ptr %8, align 8, !tbaa !4
  %16 = icmp ne ptr %15, null
  br i1 %16, label %17, label %23

17:                                               ; preds = %7
  %18 = load ptr, ptr %9, align 8, !tbaa !11
  %19 = icmp ne ptr %18, null
  br i1 %19, label %20, label %23

20:                                               ; preds = %17
  %21 = load ptr, ptr %10, align 8, !tbaa !11
  %22 = icmp ne ptr %21, null
  br i1 %22, label %24, label %23

23:                                               ; preds = %20, %17, %7
  br label %51

24:                                               ; preds = %20
  %25 = load ptr, ptr %8, align 8, !tbaa !4
  %26 = load ptr, ptr %9, align 8, !tbaa !11
  %27 = call i32 (ptr, ptr, ...) @avio_printf(ptr noundef %25, ptr noundef @.str.2, ptr noundef %26)
  %28 = load ptr, ptr %8, align 8, !tbaa !4
  %29 = load i32, ptr %12, align 4, !tbaa !9
  %30 = load i32, ptr %13, align 4, !tbaa !9
  %31 = icmp ne i32 %30, 0
  %32 = select i1 %31, ptr @.str.4, ptr @.str.5
  %33 = call i32 (ptr, ptr, ...) @avio_printf(ptr noundef %28, ptr noundef @.str.3, i32 noundef %29, ptr noundef %32)
  %34 = load ptr, ptr %11, align 8, !tbaa !11
  %35 = icmp ne ptr %34, null
  br i1 %35, label %36, label %40

36:                                               ; preds = %24
  %37 = load ptr, ptr %8, align 8, !tbaa !4
  %38 = load ptr, ptr %11, align 8, !tbaa !11
  %39 = call i32 (ptr, ptr, ...) @avio_printf(ptr noundef %37, ptr noundef @.str.6, ptr noundef %38)
  br label %40

40:                                               ; preds = %36, %24
  %41 = load i32, ptr %14, align 4, !tbaa !9
  %42 = icmp ne i32 %41, 0
  br i1 %42, label %43, label %47

43:                                               ; preds = %40
  %44 = load ptr, ptr %8, align 8, !tbaa !4
  %45 = load i32, ptr %14, align 4, !tbaa !9
  %46 = call i32 (ptr, ptr, ...) @avio_printf(ptr noundef %44, ptr noundef @.str.7, i32 noundef %45)
  br label %47

47:                                               ; preds = %43, %40
  %48 = load ptr, ptr %8, align 8, !tbaa !4
  %49 = load ptr, ptr %10, align 8, !tbaa !11
  %50 = call i32 (ptr, ptr, ...) @avio_printf(ptr noundef %48, ptr noundef @.str.8, ptr noundef %49)
  br label %51

51:                                               ; preds = %47, %23
  ret void
}