; Function Attrs: nounwind uwtable
define void @ff_hls_write_audio_rendition(ptr noundef %0, ptr noundef %1, ptr noundef %2, ptr noundef %3, i32 noundef %4, i32 noundef %5, i32 noundef %6) local_unnamed_addr #0 {
  %8 = icmp ne ptr %0, null
  %9 = icmp ne ptr %1, null
  %or.cond = and i1 %8, %9
  %10 = icmp ne ptr %2, null
  %or.cond3 = and i1 %or.cond, %10
  br i1 %or.cond3, label %11, label %22

11:                                               ; preds = %7
  %12 = tail call i32 (ptr, ptr, ...) @avio_printf(ptr noundef nonnull %0, ptr noundef nonnull @.str.2, ptr noundef nonnull %1) #8
  %.not = icmp eq i32 %5, 0
  %13 = select i1 %.not, ptr @.str.5, ptr @.str.4
  %14 = tail call i32 (ptr, ptr, ...) @avio_printf(ptr noundef nonnull %0, ptr noundef nonnull @.str.3, i32 noundef %4, ptr noundef nonnull %13) #8
  %.not22 = icmp eq ptr %3, null
  br i1 %.not22, label %17, label %15

15:                                               ; preds = %11
  %16 = tail call i32 (ptr, ptr, ...) @avio_printf(ptr noundef nonnull %0, ptr noundef nonnull @.str.6, ptr noundef nonnull %3) #8
  br label %17

17:                                               ; preds = %15, %11
  %.not23 = icmp eq i32 %6, 0
  br i1 %.not23, label %20, label %18

18:                                               ; preds = %17
  %19 = tail call i32 (ptr, ptr, ...) @avio_printf(ptr noundef nonnull %0, ptr noundef nonnull @.str.7, i32 noundef %6) #8
  br label %20

20:                                               ; preds = %18, %17
  %21 = tail call i32 (ptr, ptr, ...) @avio_printf(ptr noundef nonnull %0, ptr noundef nonnull @.str.8, ptr noundef nonnull %2) #8
  br label %22

22:                                               ; preds = %7, %20
  ret void
}